target datalayout = "e-m:e-p270:32:32-p271:32:32-p272:64:64-i64:64-i128:128-f80:128-n8:16:32:64-S128"
target triple = "x86_64-pc-linux-gnu"

%"struct.std::_Vector_base.12" = type { %"struct.std::_Vector_base<igl::tinyply::PlyElement, std::allocator<igl::tinyply::PlyElement>>::_Vector_impl" }
%"struct.std::_Vector_base<igl::tinyply::PlyElement, std::allocator<igl::tinyply::PlyElement>>::_Vector_impl" = type { %"struct.std::_Vector_base<igl::tinyply::PlyElement, std::allocator<igl::tinyply::PlyElement>>::_Vector_impl_data" }
%"struct.std::_Vector_base<igl::tinyply::PlyElement, std::allocator<igl::tinyply::PlyElement>>::_Vector_impl_data" = type { ptr, ptr, ptr }
%"struct.std::__detail::_Node_iterator" = type { %"struct.std::__detail::_Node_iterator_base" }
%"struct.std::__detail::_Node_iterator_base" = type { ptr }
%"struct.igl::tinyply::PlyFile::PlyFileImpl" = type { %"class.std::unordered_map", i8, i8, %"class.std::vector.11", %"class.std::vector.27", %"class.std::vector.27", [64 x i8] }
%"class.std::unordered_map" = type { %"class.std::_Hashtable" }
%"class.std::_Hashtable" = type { ptr, i64, %"struct.std::__detail::_Hash_node_base", i64, %"struct.std::__detail::_Prime_rehash_policy", ptr }
%"struct.std::__detail::_Hash_node_base" = type { ptr }
%"struct.std::__detail::_Prime_rehash_policy" = type { float, i64 }
%"class.std::vector.11" = type { %"struct.std::_Vector_base.12" }
%"class.std::vector.27" = type { %"struct.std::_Vector_base.28" }
%"struct.std::_Vector_base.28" = type { %"struct.std::_Vector_base<std::__cxx11::basic_string<char>, std::allocator<std::__cxx11::basic_string<char>>>::_Vector_impl" }
%"struct.std::_Vector_base<std::__cxx11::basic_string<char>, std::allocator<std::__cxx11::basic_string<char>>>::_Vector_impl" = type { %"struct.std::_Vector_base<std::__cxx11::basic_string<char>, std::allocator<std::__cxx11::basic_string<char>>>::_Vector_impl_data" }
%"struct.std::_Vector_base<std::__cxx11::basic_string<char>, std::allocator<std::__cxx11::basic_string<char>>>::_Vector_impl_data" = type { ptr, ptr, ptr }
%"struct.std::pair.39" = type { i32, [4 x i8], %"struct.igl::tinyply::PlyFile::PlyFileImpl::ParsingHelper" }
%"struct.igl::tinyply::PlyFile::PlyFileImpl::ParsingHelper" = type <{ %"class.std::shared_ptr", %"class.std::shared_ptr.41", i32, [4 x i8] }>
%"class.std::shared_ptr" = type { %"class.std::__shared_ptr" }
%"class.std::__shared_ptr" = type { ptr, %"class.std::__shared_count" }
%"class.std::__shared_count" = type { ptr }
%"class.std::shared_ptr.41" = type { %"class.std::__shared_ptr.42" }
%"class.std::__shared_ptr.42" = type { ptr, %"class.std::__shared_count" }
%"struct.igl::tinyply::PlyFile::PlyFileImpl::PlyDataCursor" = type { i64, i64 }
%"struct.std::__detail::_Hash_node_value_base.113" = type { %"struct.__gnu_cxx::__aligned_buffer.114" }
%"struct.__gnu_cxx::__aligned_buffer.114" = type { %"union.std::aligned_storage<48, 8>::type" }
%"union.std::aligned_storage<48, 8>::type" = type { [48 x i8] }

; Function Attrs: mustprogress nounwind uwtable
define linkonce_odr dso_local noundef ptr @_ZN9__gnu_cxx16__aligned_bufferISt4pairIKjN3igl7tinyply7PlyFile11PlyFileImpl13ParsingHelperEEE7_M_addrEv(ptr noundef nonnull align 8 dereferenceable(48) %0) #4 comdat align 2 {
  %2 = alloca ptr, align 8
  store ptr %0, ptr %2, align 8, !tbaa !587
  %3 = load ptr, ptr %2, align 8
  %4 = getelementptr inbounds nuw %"struct.__gnu_cxx::__aligned_buffer.114", ptr %3, i32 0, i32 0
  ret ptr %4
}

; Function Attrs: mustprogress nounwind uwtable
define linkonce_odr dso_local noundef ptr @_ZN9__gnu_cxx16__aligned_bufferISt4pairIKjN3igl7tinyply7PlyFile11PlyFileImpl13ParsingHelperEEE6_M_ptrEv(ptr noundef nonnull align 8 dereferenceable(48) %0) #4 comdat align 2 {
  %2 = alloca ptr, align 8
  store ptr %0, ptr %2, align 8, !tbaa !587
  %3 = load ptr, ptr %2, align 8
  %4 = call noundef ptr @_ZN9__gnu_cxx16__aligned_bufferISt4pairIKjN3igl7tinyply7PlyFile11PlyFileImpl13ParsingHelperEEE7_M_addrEv(ptr noundef nonnull align 8 dereferenceable(48) %3) #6
  ret ptr %4
}

; Function Attrs: mustprogress nounwind uwtable
define linkonce_odr dso_local void @_ZNSt8__detail19_Node_iterator_baseISt4pairIKjN3igl7tinyply7PlyFile11PlyFileImpl13ParsingHelperEELb0EEC2EPNS_10_Hash_nodeIS8_Lb0EEE(ptr noundef nonnull align 8 dereferenceable(8) %0, ptr noundef %1) unnamed_addr #4 comdat align 2 {
  %3 = alloca ptr, align 8
  %4 = alloca ptr, align 8
  store ptr %0, ptr %3, align 8, !tbaa !112
  store ptr %1, ptr %4, align 8, !tbaa !579
  %5 = load ptr, ptr %3, align 8
  %6 = getelementptr inbounds nuw %"struct.std::__detail::_Node_iterator_base", ptr %5, i32 0, i32 0
  %7 = load ptr, ptr %4, align 8, !tbaa !579
  store ptr %7, ptr %6, align 8, !tbaa !114
  ret void
}

; Function Attrs: mustprogress nounwind uwtable
define linkonce_odr dso_local noundef ptr @_ZNKSt8__detail10_Hash_nodeISt4pairIKjN3igl7tinyply7PlyFile11PlyFileImpl13ParsingHelperEELb0EE7_M_nextEv(ptr noundef nonnull align 8 dereferenceable(56) %0) #4 comdat align 2 {
  %2 = alloca ptr, align 8
  store ptr %0, ptr %2, align 8, !tbaa !579
  %3 = load ptr, ptr %2, align 8
  %4 = getelementptr inbounds nuw %"struct.std::__detail::_Hash_node_base", ptr %3, i32 0, i32 0
  %5 = load ptr, ptr %4, align 8, !tbaa !389
  ret ptr %5
}

; Function Attrs: mustprogress nounwind uwtable
define linkonce_odr dso_local noundef ptr @_ZNKSt12__shared_ptrIN3igl7tinyply7PlyFile11PlyFileImpl13PlyDataCursorELN9__gnu_cxx12_Lock_policyE2EE3getEv(ptr noundef nonnull align 8 dereferenceable(16) %0) #4 comdat align 2 {
  %2 = alloca ptr, align 8
  store ptr %0, ptr %2, align 8, !tbaa !455
  %3 = load ptr, ptr %2, align 8
  %4 = getelementptr inbounds nuw %"class.std::__shared_ptr.42", ptr %3, i32 0, i32 0
  %5 = load ptr, ptr %4, align 8, !tbaa !457
  ret ptr %5
}

; Function Attrs: alwaysinline mustprogress nounwind uwtable
define linkonce_odr dso_local noundef ptr @_ZNSt8__detail21_Hash_node_value_baseISt4pairIKjN3igl7tinyply7PlyFile11PlyFileImpl13ParsingHelperEEE9_M_valptrEv(ptr noundef nonnull align 8 dereferenceable(48) %0) #2 comdat align 2 {
  %2 = alloca ptr, align 8
  store ptr %0, ptr %2, align 8, !tbaa !585
  %3 = load ptr, ptr %2, align 8
  %4 = getelementptr inbounds nuw %"struct.std::__detail::_Hash_node_value_base.113", ptr %3, i32 0, i32 0
  %5 = call noundef ptr @_ZN9__gnu_cxx16__aligned_bufferISt4pairIKjN3igl7tinyply7PlyFile11PlyFileImpl13ParsingHelperEEE6_M_ptrEv(ptr noundef nonnull align 8 dereferenceable(48) %4) #6
  ret ptr %5
}

; Function Attrs: noinline noreturn nounwind uwtable
define linkonce_odr hidden void @__clang_call_terminate(ptr noundef %0) #8 comdat {
  %2 = call ptr @__cxa_begin_catch(ptr %0) #6
  call void @_ZSt9terminatev() #23
  unreachable
}

; Function Attrs: mustprogress nounwind uwtable
define linkonce_odr dso_local void @_ZNSt8__detail14_Node_iteratorISt4pairIKjN3igl7tinyply7PlyFile11PlyFileImpl13ParsingHelperEELb0ELb0EEC2EPNS_10_Hash_nodeIS8_Lb0EEE(ptr noundef nonnull align 8 dereferenceable(8) %0, ptr noundef %1) unnamed_addr #4 comdat align 2 {
  %3 = alloca ptr, align 8
  %4 = alloca ptr, align 8
  store ptr %0, ptr %3, align 8, !tbaa !117
  store ptr %1, ptr %4, align 8, !tbaa !579
  %5 = load ptr, ptr %3, align 8
  %6 = load ptr, ptr %4, align 8, !tbaa !579
  call void @_ZNSt8__detail19_Node_iterator_baseISt4pairIKjN3igl7tinyply7PlyFile11PlyFileImpl13ParsingHelperEELb0EEC2EPNS_10_Hash_nodeIS8_Lb0EEE(ptr noundef nonnull align 8 dereferenceable(8) %5, ptr noundef %6) #6
  ret void
}

; Function Attrs: mustprogress nounwind uwtable
define linkonce_odr dso_local noundef ptr @_ZNKSt10_HashtableIjSt4pairIKjN3igl7tinyply7PlyFile11PlyFileImpl13ParsingHelperEESaIS7_ENSt8__detail10_Select1stESt8equal_toIjESt4hashIjENS9_18_Mod_range_hashingENS9_20_Default_ranged_hashENS9_20_Prime_rehash_policyENS9_17_Hashtable_traitsILb0ELb0ELb1EEEE8_M_beginEv(ptr noundef nonnull align 8 dereferenceable(56) %0) #4 comdat align 2 {
  %2 = alloca ptr, align 8
  store ptr %0, ptr %2, align 8, !tbaa !494
  %3 = load ptr, ptr %2, align 8
  %4 = getelementptr inbounds nuw %"class.std::_Hashtable", ptr %3, i32 0, i32 2
  %5 = getelementptr inbounds nuw %"struct.std::__detail::_Hash_node_base", ptr %4, i32 0, i32 0
  %6 = load ptr, ptr %5, align 8, !tbaa !580
  ret ptr %6
}

; Function Attrs: mustprogress nounwind uwtable
define linkonce_odr dso_local void @_ZNSt8__detail19_Node_iterator_baseISt4pairIKjN3igl7tinyply7PlyFile11PlyFileImpl13ParsingHelperEELb0EE7_M_incrEv(ptr noundef nonnull align 8 dereferenceable(8) %0) #4 comdat align 2 {
  %2 = alloca ptr, align 8
  store ptr %0, ptr %2, align 8, !tbaa !112
  %3 = load ptr, ptr %2, align 8
  %4 = getelementptr inbounds nuw %"struct.std::__detail::_Node_iterator_base", ptr %3, i32 0, i32 0
  %5 = load ptr, ptr %4, align 8, !tbaa !114
  %6 = call noundef ptr @_ZNKSt8__detail10_Hash_nodeISt4pairIKjN3igl7tinyply7PlyFile11PlyFileImpl13ParsingHelperEELb0EE7_M_nextEv(ptr noundef nonnull align 8 dereferenceable(56) %5) #6
  %7 = getelementptr inbounds nuw %"struct.std::__detail::_Node_iterator_base", ptr %3, i32 0, i32 0
  store ptr %6, ptr %7, align 8, !tbaa !114
  ret void
}

; Function Attrs: mustprogress nounwind uwtable
define linkonce_odr dso_local noundef ptr @_ZNKSt19__shared_ptr_accessIN3igl7tinyply7PlyFile11PlyFileImpl13PlyDataCursorELN9__gnu_cxx12_Lock_policyE2ELb0ELb0EE6_M_getEv(ptr noundef nonnull align 1 dereferenceable(1) %0) #4 comdat align 2 {
  %2 = alloca ptr, align 8
  store ptr %0, ptr %2, align 8, !tbaa !236
  %3 = load ptr, ptr %2, align 8
  %4 = call noundef ptr @_ZNKSt12__shared_ptrIN3igl7tinyply7PlyFile11PlyFileImpl13PlyDataCursorELN9__gnu_cxx12_Lock_policyE2EE3getEv(ptr noundef nonnull align 8 dereferenceable(16) %3) #6
  ret ptr %4
}

; Function Attrs: alwaysinline mustprogress nounwind uwtable
define linkonce_odr dso_local noundef nonnull align 8 dereferenceable(48) ptr @_ZNSt8__detail21_Hash_node_value_baseISt4pairIKjN3igl7tinyply7PlyFile11PlyFileImpl13ParsingHelperEEE4_M_vEv(ptr noundef nonnull align 8 dereferenceable(48) %0) #2 comdat align 2 {
  %2 = alloca ptr, align 8
  store ptr %0, ptr %2, align 8, !tbaa !585
  %3 = load ptr, ptr %2, align 8
  %4 = call noundef ptr @_ZNSt8__detail21_Hash_node_value_baseISt4pairIKjN3igl7tinyply7PlyFile11PlyFileImpl13ParsingHelperEEE9_M_valptrEv(ptr noundef nonnull align 8 dereferenceable(48) %3) #6
  ret ptr %4
}

; Function Attrs: mustprogress nounwind uwtable
define linkonce_odr dso_local ptr @_ZNSt10_HashtableIjSt4pairIKjN3igl7tinyply7PlyFile11PlyFileImpl13ParsingHelperEESaIS7_ENSt8__detail10_Select1stESt8equal_toIjESt4hashIjENS9_18_Mod_range_hashingENS9_20_Default_ranged_hashENS9_20_Prime_rehash_policyENS9_17_Hashtable_traitsILb0ELb0ELb1EEEE3endEv(ptr noundef nonnull align 8 dereferenceable(56) %0) #4 comdat align 2 {
  %2 = alloca %"struct.std::__detail::_Node_iterator", align 8
  %3 = alloca ptr, align 8
  store ptr %0, ptr %3, align 8, !tbaa !494
  call void @_ZNSt8__detail14_Node_iteratorISt4pairIKjN3igl7tinyply7PlyFile11PlyFileImpl13ParsingHelperEELb0ELb0EEC2EPNS_10_Hash_nodeIS8_Lb0EEE(ptr noundef nonnull align 8 dereferenceable(8) %2, ptr noundef null) #6
  %4 = getelementptr inbounds nuw %"struct.std::__detail::_Node_iterator", ptr %2, i32 0, i32 0
  %5 = getelementptr inbounds nuw %"struct.std::__detail::_Node_iterator_base", ptr %4, i32 0, i32 0
  %6 = load ptr, ptr %5, align 8
  ret ptr %6
}

; Function Attrs: mustprogress nounwind uwtable
define linkonce_odr dso_local ptr @_ZNSt10_HashtableIjSt4pairIKjN3igl7tinyply7PlyFile11PlyFileImpl13ParsingHelperEESaIS7_ENSt8__detail10_Select1stESt8equal_toIjESt4hashIjENS9_18_Mod_range_hashingENS9_20_Default_ranged_hashENS9_20_Prime_rehash_policyENS9_17_Hashtable_traitsILb0ELb0ELb1EEEE5beginEv(ptr noundef nonnull align 8 dereferenceable(56) %0) #4 comdat align 2 personality ptr @__gxx_personality_v0 {
  %2 = alloca %"struct.std::__detail::_Node_iterator", align 8
  %3 = alloca ptr, align 8
  store ptr %0, ptr %3, align 8, !tbaa !494
  %4 = load ptr, ptr %3, align 8
  %5 = invoke noundef ptr @_ZNKSt10_HashtableIjSt4pairIKjN3igl7tinyply7PlyFile11PlyFileImpl13ParsingHelperEESaIS7_ENSt8__detail10_Select1stESt8equal_toIjESt4hashIjENS9_18_Mod_range_hashingENS9_20_Default_ranged_hashENS9_20_Prime_rehash_policyENS9_17_Hashtable_traitsILb0ELb0ELb1EEEE8_M_beginEv(ptr noundef nonnull align 8 dereferenceable(56) %4)
          to label %6 unwind label %10

6:                                                ; preds = %1
  call void @_ZNSt8__detail14_Node_iteratorISt4pairIKjN3igl7tinyply7PlyFile11PlyFileImpl13ParsingHelperEELb0ELb0EEC2EPNS_10_Hash_nodeIS8_Lb0EEE(ptr noundef nonnull align 8 dereferenceable(8) %2, ptr noundef %5) #6
  %7 = getelementptr inbounds nuw %"struct.std::__detail::_Node_iterator", ptr %2, i32 0, i32 0
  %8 = getelementptr inbounds nuw %"struct.std::__detail::_Node_iterator_base", ptr %7, i32 0, i32 0
  %9 = load ptr, ptr %8, align 8
  ret ptr %9

10:                                               ; preds = %1
  %11 = landingpad { ptr, i32 }
          catch ptr null
  %12 = extractvalue { ptr, i32 } %11, 0
  call void @__clang_call_terminate(ptr %12) #23
  unreachable
}

; Function Attrs: mustprogress nounwind uwtable
define linkonce_odr dso_local noundef nonnull align 8 dereferenceable(8) ptr @_ZNSt8__detail14_Node_iteratorISt4pairIKjN3igl7tinyply7PlyFile11PlyFileImpl13ParsingHelperEELb0ELb0EEppEv(ptr noundef nonnull align 8 dereferenceable(8) %0) #4 comdat align 2 {
  %2 = alloca ptr, align 8
  store ptr %0, ptr %2, align 8, !tbaa !117
  %3 = load ptr, ptr %2, align 8
  call void @_ZNSt8__detail19_Node_iterator_baseISt4pairIKjN3igl7tinyply7PlyFile11PlyFileImpl13ParsingHelperEELb0EE7_M_incrEv(ptr noundef nonnull align 8 dereferenceable(8) %3) #6
  ret ptr %3
}

; Function Attrs: mustprogress nounwind uwtable
define linkonce_odr dso_local noundef ptr @_ZNKSt19__shared_ptr_accessIN3igl7tinyply7PlyFile11PlyFileImpl13PlyDataCursorELN9__gnu_cxx12_Lock_policyE2ELb0ELb0EEptEv(ptr noundef nonnull align 1 dereferenceable(1) %0) #4 comdat align 2 {
  %2 = alloca ptr, align 8
  store ptr %0, ptr %2, align 8, !tbaa !236
  %3 = load ptr, ptr %2, align 8
  %4 = call noundef ptr @_ZNKSt19__shared_ptr_accessIN3igl7tinyply7PlyFile11PlyFileImpl13PlyDataCursorELN9__gnu_cxx12_Lock_policyE2ELb0ELb0EE6_M_getEv(ptr noundef nonnull align 1 dereferenceable(1) %3) #6
  ret ptr %4
}

; Function Attrs: mustprogress nounwind uwtable
define linkonce_odr dso_local noundef nonnull align 8 dereferenceable(48) ptr @_ZNKSt8__detail14_Node_iteratorISt4pairIKjN3igl7tinyply7PlyFile11PlyFileImpl13ParsingHelperEELb0ELb0EEdeEv(ptr noundef nonnull align 8 dereferenceable(8) %0) #4 comdat align 2 {
  %2 = alloca ptr, align 8
  store ptr %0, ptr %2, align 8, !tbaa !117
  %3 = load ptr, ptr %2, align 8
  %4 = getelementptr inbounds nuw %"struct.std::__detail::_Node_iterator_base", ptr %3, i32 0, i32 0
  %5 = load ptr, ptr %4, align 8, !tbaa !114
  %6 = getelementptr inbounds i8, ptr %5, i64 8
  %7 = call noundef nonnull align 8 dereferenceable(48) ptr @_ZNSt8__detail21_Hash_node_value_baseISt4pairIKjN3igl7tinyply7PlyFile11PlyFileImpl13ParsingHelperEEE4_M_vEv(ptr noundef nonnull align 8 dereferenceable(48) %6) #6
  ret ptr %7
}

; Function Attrs: mustprogress nounwind uwtable
define linkonce_odr dso_local noundef zeroext i1 @_ZNSt8__detailneERKNS_19_Node_iterator_baseISt4pairIKjN3igl7tinyply7PlyFile11PlyFileImpl13ParsingHelperEELb0EEESB_(ptr noundef nonnull align 8 dereferenceable(8) %0, ptr noundef nonnull align 8 dereferenceable(8) %1) #4 comdat {
  %3 = alloca ptr, align 8
  %4 = alloca ptr, align 8
  store ptr %0, ptr %3, align 8, !tbaa !112
  store ptr %1, ptr %4, align 8, !tbaa !112
  %5 = load ptr, ptr %3, align 8, !tbaa !112
  %6 = getelementptr inbounds nuw %"struct.std::__detail::_Node_iterator_base", ptr %5, i32 0, i32 0
  %7 = load ptr, ptr %6, align 8, !tbaa !114
  %8 = load ptr, ptr %4, align 8, !tbaa !112
  %9 = getelementptr inbounds nuw %"struct.std::__detail::_Node_iterator_base", ptr %8, i32 0, i32 0
  %10 = load ptr, ptr %9, align 8, !tbaa !114
  %11 = icmp ne ptr %7, %10
  ret i1 %11
}

; Function Attrs: mustprogress nounwind uwtable
define linkonce_odr dso_local ptr @_ZNSt13unordered_mapIjN3igl7tinyply7PlyFile11PlyFileImpl13ParsingHelperESt4hashIjESt8equal_toIjESaISt4pairIKjS4_EEE3endEv(ptr noundef nonnull align 8 dereferenceable(56) %0) #4 comdat align 2 {
  %2 = alloca %"struct.std::__detail::_Node_iterator", align 8
  %3 = alloca ptr, align 8
  store ptr %0, ptr %3, align 8, !tbaa !110
  %4 = load ptr, ptr %3, align 8
  %5 = getelementptr inbounds nuw %"class.std::unordered_map", ptr %4, i32 0, i32 0
  %6 = call ptr @_ZNSt10_HashtableIjSt4pairIKjN3igl7tinyply7PlyFile11PlyFileImpl13ParsingHelperEESaIS7_ENSt8__detail10_Select1stESt8equal_toIjESt4hashIjENS9_18_Mod_range_hashingENS9_20_Default_ranged_hashENS9_20_Prime_rehash_policyENS9_17_Hashtable_traitsILb0ELb0ELb1EEEE3endEv(ptr noundef nonnull align 8 dereferenceable(56) %5) #6
  %7 = getelementptr inbounds nuw %"struct.std::__detail::_Node_iterator", ptr %2, i32 0, i32 0
  %8 = getelementptr inbounds nuw %"struct.std::__detail::_Node_iterator_base", ptr %7, i32 0, i32 0
  store ptr %6, ptr %8, align 8
  %9 = getelementptr inbounds nuw %"struct.std::__detail::_Node_iterator", ptr %2, i32 0, i32 0
  %10 = getelementptr inbounds nuw %"struct.std::__detail::_Node_iterator_base", ptr %9, i32 0, i32 0
  %11 = load ptr, ptr %10, align 8
  ret ptr %11
}

; Function Attrs: mustprogress nounwind uwtable
define linkonce_odr dso_local ptr @_ZNSt13unordered_mapIjN3igl7tinyply7PlyFile11PlyFileImpl13ParsingHelperESt4hashIjESt8equal_toIjESaISt4pairIKjS4_EEE5beginEv(ptr noundef nonnull align 8 dereferenceable(56) %0) #4 comdat align 2 {
  %2 = alloca %"struct.std::__detail::_Node_iterator", align 8
  %3 = alloca ptr, align 8
  store ptr %0, ptr %3, align 8, !tbaa !110
  %4 = load ptr, ptr %3, align 8
  %5 = getelementptr inbounds nuw %"class.std::unordered_map", ptr %4, i32 0, i32 0
  %6 = call ptr @_ZNSt10_HashtableIjSt4pairIKjN3igl7tinyply7PlyFile11PlyFileImpl13ParsingHelperEESaIS7_ENSt8__detail10_Select1stESt8equal_toIjESt4hashIjENS9_18_Mod_range_hashingENS9_20_Default_ranged_hashENS9_20_Prime_rehash_policyENS9_17_Hashtable_traitsILb0ELb0ELb1EEEE5beginEv(ptr noundef nonnull align 8 dereferenceable(56) %5) #6
  %7 = getelementptr inbounds nuw %"struct.std::__detail::_Node_iterator", ptr %2, i32 0, i32 0
  %8 = getelementptr inbounds nuw %"struct.std::__detail::_Node_iterator_base", ptr %7, i32 0, i32 0
  store ptr %6, ptr %8, align 8
  %9 = getelementptr inbounds nuw %"struct.std::__detail::_Node_iterator", ptr %2, i32 0, i32 0
  %10 = getelementptr inbounds nuw %"struct.std::__detail::_Node_iterator_base", ptr %9, i32 0, i32 0
  %11 = load ptr, ptr %10, align 8
  ret ptr %11
}

; Function Attrs: mustprogress nounwind uwtable
define dso_local void @_ZN3igl7tinyply7PlyFile11PlyFileImpl5writeERSob(ptr noundef nonnull align 8 dereferenceable(200) %0, ptr noundef nonnull align 8 dereferenceable(8) %1, i1 noundef zeroext %2) #4 align 2 {
  %4 = alloca ptr, align 8
  %5 = alloca ptr, align 8
  %6 = alloca i8, align 1
  %7 = alloca ptr, align 8
  %8 = alloca %"struct.std::__detail::_Node_iterator", align 8
  %9 = alloca %"struct.std::__detail::_Node_iterator", align 8
  %10 = alloca ptr, align 8
  store ptr %0, ptr %4, align 8, !tbaa !86
  store ptr %1, ptr %5, align 8, !tbaa !167
  %11 = zext i1 %2 to i8
  store i8 %11, ptr %6, align 1, !tbaa !130
  %12 = load ptr, ptr %4, align 8
  call void @llvm.lifetime.start.p0(i64 8, ptr %7) #6
  %13 = getelementptr inbounds nuw %"struct.igl::tinyply::PlyFile::PlyFileImpl", ptr %12, i32 0, i32 0
  store ptr %13, ptr %7, align 8, !tbaa !110
  call void @llvm.lifetime.start.p0(i64 8, ptr %8) #6
  %14 = load ptr, ptr %7, align 8, !tbaa !110
  %15 = call ptr @_ZNSt13unordered_mapIjN3igl7tinyply7PlyFile11PlyFileImpl13ParsingHelperESt4hashIjESt8equal_toIjESaISt4pairIKjS4_EEE5beginEv(ptr noundef nonnull align 8 dereferenceable(56) %14) #6
  %16 = getelementptr inbounds nuw %"struct.std::__detail::_Node_iterator", ptr %8, i32 0, i32 0
  %17 = getelementptr inbounds nuw %"struct.std::__detail::_Node_iterator_base", ptr %16, i32 0, i32 0
  store ptr %15, ptr %17, align 8
  call void @llvm.lifetime.start.p0(i64 8, ptr %9) #6
  %18 = load ptr, ptr %7, align 8, !tbaa !110
  %19 = call ptr @_ZNSt13unordered_mapIjN3igl7tinyply7PlyFile11PlyFileImpl13ParsingHelperESt4hashIjESt8equal_toIjESaISt4pairIKjS4_EEE3endEv(ptr noundef nonnull align 8 dereferenceable(56) %18) #6
  %20 = getelementptr inbounds nuw %"struct.std::__detail::_Node_iterator", ptr %9, i32 0, i32 0
  %21 = getelementptr inbounds nuw %"struct.std::__detail::_Node_iterator_base", ptr %20, i32 0, i32 0
  store ptr %19, ptr %21, align 8
  br label %22

22:                                               ; preds = %32, %3
  %23 = call noundef zeroext i1 @_ZNSt8__detailneERKNS_19_Node_iterator_baseISt4pairIKjN3igl7tinyply7PlyFile11PlyFileImpl13ParsingHelperEELb0EEESB_(ptr noundef nonnull align 8 dereferenceable(8) %8, ptr noundef nonnull align 8 dereferenceable(8) %9) #6
  br i1 %23, label %25, label %24

24:                                               ; preds = %22
  call void @llvm.lifetime.end.p0(i64 8, ptr %9) #6
  call void @llvm.lifetime.end.p0(i64 8, ptr %8) #6
  call void @llvm.lifetime.end.p0(i64 8, ptr %7) #6
  br label %34

25:                                               ; preds = %22
  call void @llvm.lifetime.start.p0(i64 8, ptr %10) #6
  %26 = call noundef nonnull align 8 dereferenceable(48) ptr @_ZNKSt8__detail14_Node_iteratorISt4pairIKjN3igl7tinyply7PlyFile11PlyFileImpl13ParsingHelperEELb0ELb0EEdeEv(ptr noundef nonnull align 8 dereferenceable(8) %8) #6
  store ptr %26, ptr %10, align 8, !tbaa !169
  %27 = load ptr, ptr %10, align 8, !tbaa !169
  %28 = getelementptr inbounds nuw %"struct.std::pair.39", ptr %27, i32 0, i32 2
  %29 = getelementptr inbounds nuw %"struct.igl::tinyply::PlyFile::PlyFileImpl::ParsingHelper", ptr %28, i32 0, i32 1
  %30 = call noundef ptr @_ZNKSt19__shared_ptr_accessIN3igl7tinyply7PlyFile11PlyFileImpl13PlyDataCursorELN9__gnu_cxx12_Lock_policyE2ELb0ELb0EEptEv(ptr noundef nonnull align 1 dereferenceable(1) %29) #6
  %31 = getelementptr inbounds nuw %"struct.igl::tinyply::PlyFile::PlyFileImpl::PlyDataCursor", ptr %30, i32 0, i32 0
  store i64 0, ptr %31, align 8, !tbaa !246
  call void @llvm.lifetime.end.p0(i64 8, ptr %10) #6
  br label %32

32:                                               ; preds = %25
  %33 = call noundef nonnull align 8 dereferenceable(8) ptr @_ZNSt8__detail14_Node_iteratorISt4pairIKjN3igl7tinyply7PlyFile11PlyFileImpl13ParsingHelperEELb0ELb0EEppEv(ptr noundef nonnull align 8 dereferenceable(8) %8) #6
  br label %22

34:                                               ; preds = %24
  %35 = load i8, ptr %6, align 1, !tbaa !130, !range !93, !noundef !94
  %36 = trunc i8 %35 to i1
  br i1 %36, label %37, label %41

37:                                               ; preds = %34
  %38 = getelementptr inbounds nuw %"struct.igl::tinyply::PlyFile::PlyFileImpl", ptr %12, i32 0, i32 1
  store i8 1, ptr %38, align 8, !tbaa !142
  %39 = getelementptr inbounds nuw %"struct.igl::tinyply::PlyFile::PlyFileImpl", ptr %12, i32 0, i32 2
  store i8 0, ptr %39, align 1, !tbaa !159
  %40 = load ptr, ptr %5, align 8, !tbaa !167
  call void @_ZN3igl7tinyply7PlyFile11PlyFileImpl21write_binary_internalERSo(ptr noundef nonnull align 8 dereferenceable(200) %12, ptr noundef nonnull align 8 dereferenceable(8) %40) #6
  br label %45

41:                                               ; preds = %34
  %42 = getelementptr inbounds nuw %"struct.igl::tinyply::PlyFile::PlyFileImpl", ptr %12, i32 0, i32 1
  store i8 0, ptr %42, align 8, !tbaa !142
  %43 = getelementptr inbounds nuw %"struct.igl::tinyply::PlyFile::PlyFileImpl", ptr %12, i32 0, i32 2
  store i8 0, ptr %43, align 1, !tbaa !159
  %44 = load ptr, ptr %5, align 8, !tbaa !167
  call void @_ZN3igl7tinyply7PlyFile11PlyFileImpl20write_ascii_internalERSo(ptr noundef nonnull align 8 dereferenceable(200) %12, ptr noundef nonnull align 8 dereferenceable(8) %44) #6
  br label %45

45:                                               ; preds = %41, %37
  ret void
}