; Function Attrs: mustprogress nounwind uwtable
define dso_local void @_ZN3igl7tinyply7PlyFile11PlyFileImpl5writeERSob(ptr noundef nonnull align 8 captures(none) dereferenceable(200) %0, ptr noundef nonnull align 8 dereferenceable(8) %1, i1 noundef zeroext %2) local_unnamed_addr #2 align 2 personality ptr @__gxx_personality_v0 {
  %4 = getelementptr inbounds nuw i8, ptr %0, i64 16
  %.sroa.06.09 = load ptr, ptr %4, align 8, !tbaa !85
  %.not10 = icmp eq ptr %.sroa.06.09, null
  br i1 %.not10, label %._crit_edge, label %.lr.ph

._crit_edge:                                      ; preds = %.lr.ph, %3
  %5 = getelementptr inbounds nuw i8, ptr %0, i64 56
  %6 = getelementptr inbounds nuw i8, ptr %0, i64 57
  br i1 %2, label %9, label %10

.lr.ph:                                           ; preds = %3, %.lr.ph
  %.sroa.06.011 = phi ptr [ %.sroa.06.0, %.lr.ph ], [ %.sroa.06.09, %3 ]
  %7 = getelementptr inbounds nuw i8, ptr %.sroa.06.011, i64 32
  %8 = load ptr, ptr %7, align 8, !tbaa !197
  store i64 0, ptr %8, align 8, !tbaa !242
  %.sroa.06.0 = load ptr, ptr %.sroa.06.011, align 8, !tbaa !85
  %.not = icmp eq ptr %.sroa.06.0, null
  br i1 %.not, label %._crit_edge, label %.lr.ph

9:                                                ; preds = %._crit_edge
  store i8 1, ptr %5, align 8, !tbaa !150
  store i8 0, ptr %6, align 1, !tbaa !141
  tail call void @_ZN3igl7tinyply7PlyFile11PlyFileImpl21write_binary_internalERSo(ptr noundef nonnull align 8 dereferenceable(200) %0, ptr noundef nonnull align 8 dereferenceable(8) %1) #30
  br label %11

10:                                               ; preds = %._crit_edge
  store i8 0, ptr %5, align 8, !tbaa !150
  store i8 0, ptr %6, align 1, !tbaa !141
  tail call void @_ZN3igl7tinyply7PlyFile11PlyFileImpl20write_ascii_internalERSo(ptr noundef nonnull align 8 dereferenceable(200) %0, ptr noundef nonnull align 8 dereferenceable(8) %1) #30
  br label %11

11:                                               ; preds = %10, %9
  ret void
}